; ModuleID = '55/1718.c'
source_filename = "55/1718.c"
target datalayout = "e-m:e-p270:32:32-p271:32:32-p272:64:64-i64:64-f80:128-n8:16:32:64-S128"
target triple = "x86_64-pc-linux-gnu"

@.str = private unnamed_addr constant [9 x i8] c"%d %s %d\00", align 1
@.str.1 = private unnamed_addr constant [4 x i8] c"%s\0A\00", align 1
@.str.2 = private unnamed_addr constant [3 x i8] c"0\0A\00", align 1
@.str.3 = private unnamed_addr constant [3 x i8] c"%c\00", align 1
@.str.4 = private unnamed_addr constant [4 x i8] c"%ld\00", align 1
@.str.5 = private unnamed_addr constant [2 x i8] c"\0A\00", align 1

; Function Attrs: noinline nounwind uwtable
define dso_local i32 @main() #0 {
  %1 = alloca i32, align 4
  %2 = alloca i32, align 4
  %3 = alloca i32, align 4
  %4 = alloca i64, align 8
  %5 = alloca [20 x i8], align 16
  %6 = alloca i64, align 8
  %7 = alloca i32, align 4
  %8 = alloca i64, align 8
  %9 = alloca [100 x i64], align 16
  %10 = alloca i32, align 4
  store i32 0, i32* %1, align 4
  store i64 0, i64* %4, align 8
  %11 = bitcast [20 x i8]* %5 to i8*
  call void @llvm.memset.p0i8.i64(i8* align 16 %11, i8 0, i64 20, i1 false)
  %12 = getelementptr inbounds [20 x i8], [20 x i8]* %5, i64 0, i64 0
  %13 = call i32 (i8*, ...) @__isoc99_scanf(i8* getelementptr inbounds ([9 x i8], [9 x i8]* @.str, i64 0, i64 0), i32* %2, i8* %12, i32* %3)
  %14 = load i32, i32* %2, align 4
  %15 = load i32, i32* %3, align 4
  %16 = icmp eq i32 %14, %15
  br i1 %16, label %17, label %20

17:                                               ; preds = %0
  %18 = getelementptr inbounds [20 x i8], [20 x i8]* %5, i64 0, i64 0
  %19 = call i32 (i8*, ...) @printf(i8* getelementptr inbounds ([4 x i8], [4 x i8]* @.str.1, i64 0, i64 0), i8* %18)
  br label %165

20:                                               ; preds = %0
  store i64 1, i64* %6, align 8
  %21 = getelementptr inbounds [20 x i8], [20 x i8]* %5, i64 0, i64 0
  %22 = call i64 @strlen(i8* %21) #4
  %23 = sub i64 %22, 1
  %24 = trunc i64 %23 to i32
  store i32 %24, i32* %7, align 4
  br label %25

25:                                               ; preds = %106, %20
  %26 = load i32, i32* %7, align 4
  %27 = icmp sge i32 %26, 0
  br i1 %27, label %28, label %109

28:                                               ; preds = %25
  %29 = load i32, i32* %7, align 4
  %30 = sext i32 %29 to i64
  %31 = getelementptr inbounds [20 x i8], [20 x i8]* %5, i64 0, i64 %30
  %32 = load i8, i8* %31, align 1
  %33 = sext i8 %32 to i32
  %34 = icmp sge i32 %33, 48
  br i1 %34, label %35, label %50

35:                                               ; preds = %28
  %36 = load i32, i32* %7, align 4
  %37 = sext i32 %36 to i64
  %38 = getelementptr inbounds [20 x i8], [20 x i8]* %5, i64 0, i64 %37
  %39 = load i8, i8* %38, align 1
  %40 = sext i8 %39 to i32
  %41 = icmp sle i32 %40, 57
  br i1 %41, label %42, label %50

42:                                               ; preds = %35
  %43 = load i32, i32* %7, align 4
  %44 = sext i32 %43 to i64
  %45 = getelementptr inbounds [20 x i8], [20 x i8]* %5, i64 0, i64 %44
  %46 = load i8, i8* %45, align 1
  %47 = sext i8 %46 to i32
  %48 = sub nsw i32 %47, 48
  %49 = sext i32 %48 to i64
  store i64 %49, i64* %8, align 8
  br label %50

50:                                               ; preds = %42, %35, %28
  %51 = load i32, i32* %7, align 4
  %52 = sext i32 %51 to i64
  %53 = getelementptr inbounds [20 x i8], [20 x i8]* %5, i64 0, i64 %52
  %54 = load i8, i8* %53, align 1
  %55 = sext i8 %54 to i32
  %56 = icmp sge i32 %55, 65
  br i1 %56, label %57, label %73

57:                                               ; preds = %50
  %58 = load i32, i32* %7, align 4
  %59 = sext i32 %58 to i64
  %60 = getelementptr inbounds [20 x i8], [20 x i8]* %5, i64 0, i64 %59
  %61 = load i8, i8* %60, align 1
  %62 = sext i8 %61 to i32
  %63 = icmp sle i32 %62, 90
  br i1 %63, label %64, label %73

64:                                               ; preds = %57
  %65 = load i32, i32* %7, align 4
  %66 = sext i32 %65 to i64
  %67 = getelementptr inbounds [20 x i8], [20 x i8]* %5, i64 0, i64 %66
  %68 = load i8, i8* %67, align 1
  %69 = sext i8 %68 to i32
  %70 = sub nsw i32 %69, 65
  %71 = add nsw i32 %70, 10
  %72 = sext i32 %71 to i64
  store i64 %72, i64* %8, align 8
  br label %73

73:                                               ; preds = %64, %57, %50
  %74 = load i32, i32* %7, align 4
  %75 = sext i32 %74 to i64
  %76 = getelementptr inbounds [20 x i8], [20 x i8]* %5, i64 0, i64 %75
  %77 = load i8, i8* %76, align 1
  %78 = sext i8 %77 to i32
  %79 = icmp sge i32 %78, 97
  br i1 %79, label %80, label %96

80:                                               ; preds = %73
  %81 = load i32, i32* %7, align 4
  %82 = sext i32 %81 to i64
  %83 = getelementptr inbounds [20 x i8], [20 x i8]* %5, i64 0, i64 %82
  %84 = load i8, i8* %83, align 1
  %85 = sext i8 %84 to i32
  %86 = icmp sle i32 %85, 122
  br i1 %86, label %87, label %96

87:                                               ; preds = %80
  %88 = load i32, i32* %7, align 4
  %89 = sext i32 %88 to i64
  %90 = getelementptr inbounds [20 x i8], [20 x i8]* %5, i64 0, i64 %89
  %91 = load i8, i8* %90, align 1
  %92 = sext i8 %91 to i32
  %93 = sub nsw i32 %92, 97
  %94 = add nsw i32 %93, 10
  %95 = sext i32 %94 to i64
  store i64 %95, i64* %8, align 8
  br label %96

96:                                               ; preds = %87, %80, %73
  %97 = load i64, i64* %8, align 8
  %98 = load i64, i64* %6, align 8
  %99 = mul nsw i64 %97, %98
  %100 = load i64, i64* %4, align 8
  %101 = add nsw i64 %100, %99
  store i64 %101, i64* %4, align 8
  %102 = load i32, i32* %2, align 4
  %103 = sext i32 %102 to i64
  %104 = load i64, i64* %6, align 8
  %105 = mul nsw i64 %104, %103
  store i64 %105, i64* %6, align 8
  br label %106

106:                                              ; preds = %96
  %107 = load i32, i32* %7, align 4
  %108 = add nsw i32 %107, -1
  store i32 %108, i32* %7, align 4
  br label %25

109:                                              ; preds = %25
  %110 = load i64, i64* %4, align 8
  %111 = icmp eq i64 %110, 0
  br i1 %111, label %112, label %114

112:                                              ; preds = %109
  %113 = call i32 (i8*, ...) @printf(i8* getelementptr inbounds ([3 x i8], [3 x i8]* @.str.2, i64 0, i64 0))
  br label %164

114:                                              ; preds = %109
  %115 = bitcast [100 x i64]* %9 to i8*
  call void @llvm.memset.p0i8.i64(i8* align 16 %115, i8 0, i64 800, i1 false)
  store i64 0, i64* %6, align 8
  br label %116

116:                                              ; preds = %119, %114
  %117 = load i64, i64* %4, align 8
  %118 = icmp sgt i64 %117, 0
  br i1 %118, label %119, label %132

119:                                              ; preds = %116
  %120 = load i64, i64* %6, align 8
  %121 = add nsw i64 %120, 1
  store i64 %121, i64* %6, align 8
  %122 = load i64, i64* %4, align 8
  %123 = load i32, i32* %3, align 4
  %124 = sext i32 %123 to i64
  %125 = srem i64 %122, %124
  %126 = load i64, i64* %6, align 8
  %127 = getelementptr inbounds [100 x i64], [100 x i64]* %9, i64 0, i64 %126
  store i64 %125, i64* %127, align 8
  %128 = load i32, i32* %3, align 4
  %129 = sext i32 %128 to i64
  %130 = load i64, i64* %4, align 8
  %131 = sdiv i64 %130, %129
  store i64 %131, i64* %4, align 8
  br label %116

132:                                              ; preds = %116
  %133 = load i64, i64* %6, align 8
  %134 = trunc i64 %133 to i32
  store i32 %134, i32* %10, align 4
  br label %135

135:                                              ; preds = %159, %132
  %136 = load i32, i32* %10, align 4
  %137 = icmp sge i32 %136, 1
  br i1 %137, label %138, label %162

138:                                              ; preds = %135
  %139 = load i32, i32* %10, align 4
  %140 = sext i32 %139 to i64
  %141 = getelementptr inbounds [100 x i64], [100 x i64]* %9, i64 0, i64 %140
  %142 = load i64, i64* %141, align 8
  %143 = icmp sge i64 %142, 10
  br i1 %143, label %144, label %152

144:                                              ; preds = %138
  %145 = load i32, i32* %10, align 4
  %146 = sext i32 %145 to i64
  %147 = getelementptr inbounds [100 x i64], [100 x i64]* %9, i64 0, i64 %146
  %148 = load i64, i64* %147, align 8
  %149 = sub nsw i64 %148, 10
  %150 = add nsw i64 %149, 65
  %151 = call i32 (i8*, ...) @printf(i8* getelementptr inbounds ([3 x i8], [3 x i8]* @.str.3, i64 0, i64 0), i64 %150)
  br label %158

152:                                              ; preds = %138
  %153 = load i32, i32* %10, align 4
  %154 = sext i32 %153 to i64
  %155 = getelementptr inbounds [100 x i64], [100 x i64]* %9, i64 0, i64 %154
  %156 = load i64, i64* %155, align 8
  %157 = call i32 (i8*, ...) @printf(i8* getelementptr inbounds ([4 x i8], [4 x i8]* @.str.4, i64 0, i64 0), i64 %156)
  br label %158

158:                                              ; preds = %152, %144
  br label %159

159:                                              ; preds = %158
  %160 = load i32, i32* %10, align 4
  %161 = add nsw i32 %160, -1
  store i32 %161, i32* %10, align 4
  br label %135

162:                                              ; preds = %135
  %163 = call i32 (i8*, ...) @printf(i8* getelementptr inbounds ([2 x i8], [2 x i8]* @.str.5, i64 0, i64 0))
  br label %164

164:                                              ; preds = %162, %112
  br label %165

165:                                              ; preds = %164, %17
  ret i32 0
}

; Function Attrs: argmemonly nounwind willreturn
declare void @llvm.memset.p0i8.i64(i8* nocapture writeonly, i8, i64, i1 immarg) #1

declare dso_local i32 @__isoc99_scanf(i8*, ...) #2

declare dso_local i32 @printf(i8*, ...) #2

; Function Attrs: nounwind readonly
declare dso_local i64 @strlen(i8*) #3


!llvm.module.flags = !{!0}
!llvm.ident = !{!1}

!0 = !{i32 1, !"wchar_size", i32 4}
!1 = !{!"clang version 10.0.0-4ubuntu1 "}
